target datalayout = "e-m:e-p270:32:32-p271:32:32-p272:64:64-i64:64-i128:128-f80:128-n8:16:32:64-S128"
target triple = "x86_64-pc-linux-gnu"

; Function Attrs: nounwind uwtable
define internal float @compute_median_flt(ptr noundef %0, float noundef %1, float noundef %2, i32 noundef %3, ptr noundef %4, ptr noundef %5) #2 {
  %7 = alloca ptr, align 8
  %8 = alloca float, align 4
  %9 = alloca float, align 4
  %10 = alloca i32, align 4
  %11 = alloca ptr, align 8
  %12 = alloca ptr, align 8
  %13 = alloca float, align 4
  %14 = alloca float, align 4
  %15 = alloca i32, align 4
  %16 = alloca i32, align 4
  %17 = alloca i32, align 4
  %18 = alloca i32, align 4
  store ptr %0, ptr %7, align 8, !tbaa !95
  store float %1, ptr %8, align 4, !tbaa !97
  store float %2, ptr %9, align 4, !tbaa !97
  store i32 %3, ptr %10, align 4, !tbaa !35
  store ptr %4, ptr %11, align 8, !tbaa !99
  store ptr %5, ptr %12, align 8, !tbaa !99
  call void @llvm.lifetime.start.p0(i64 4, ptr %13) #7
  call void @llvm.lifetime.start.p0(i64 4, ptr %14) #7
  %19 = load float, ptr %8, align 4, !tbaa !97
  %20 = call nsz float @llvm.fabs.f32(float %19)
  store float %20, ptr %14, align 4, !tbaa !97
  call void @llvm.lifetime.start.p0(i64 4, ptr %15) #7
  %21 = load ptr, ptr %11, align 8, !tbaa !99
  %22 = load i32, ptr %21, align 4, !tbaa !35
  store i32 %22, ptr %15, align 4, !tbaa !35
  call void @llvm.lifetime.start.p0(i64 4, ptr %16) #7
  %23 = load ptr, ptr %12, align 8, !tbaa !99
  %24 = load i32, ptr %23, align 4, !tbaa !35
  store i32 %24, ptr %16, align 4, !tbaa !35
  call void @llvm.lifetime.start.p0(i64 4, ptr %17) #7
  %25 = load i32, ptr %15, align 4, !tbaa !35
  %26 = load i32, ptr %16, align 4, !tbaa !35
  %27 = icmp eq i32 %25, %26
  br i1 %27, label %28, label %35

28:                                               ; preds = %6
  %29 = load ptr, ptr %7, align 8, !tbaa !95
  %30 = load i32, ptr %15, align 4, !tbaa !35
  %31 = sext i32 %30 to i64
  %32 = getelementptr inbounds float, ptr %29, i64 %31
  %33 = load float, ptr %32, align 4, !tbaa !97
  %34 = fcmp nsz oeq float %33, -1.000000e+00
  br label %35

35:                                               ; preds = %28, %6
  %36 = phi i1 [ false, %6 ], [ %34, %28 ]
  %37 = zext i1 %36 to i32
  store i32 %37, ptr %17, align 4, !tbaa !35
  call void @llvm.lifetime.start.p0(i64 4, ptr %18) #7
  %38 = load i32, ptr %17, align 4, !tbaa !35
  %39 = icmp ne i32 %38, 0
  br i1 %39, label %71, label %40

40:                                               ; preds = %35
  %41 = load float, ptr %9, align 4, !tbaa !97
  %42 = call nsz float @llvm.fabs.f32(float %41)
  %43 = load ptr, ptr %7, align 8, !tbaa !95
  %44 = load i32, ptr %15, align 4, !tbaa !35
  %45 = sext i32 %44 to i64
  %46 = getelementptr inbounds float, ptr %43, i64 %45
  %47 = load float, ptr %46, align 4, !tbaa !97
  %48 = fcmp nsz oeq float %42, %47
  br i1 %48, label %49, label %71

49:                                               ; preds = %40
  %50 = load ptr, ptr %7, align 8, !tbaa !95
  %51 = load i32, ptr %15, align 4, !tbaa !35
  %52 = sext i32 %51 to i64
  %53 = getelementptr inbounds float, ptr %50, i64 %52
  store float -1.000000e+00, ptr %53, align 4, !tbaa !97
  %54 = load i32, ptr %16, align 4, !tbaa !35
  %55 = load i32, ptr %15, align 4, !tbaa !35
  %56 = icmp ne i32 %54, %55
  br i1 %56, label %57, label %66

57:                                               ; preds = %49
  %58 = load i32, ptr %15, align 4, !tbaa !35
  %59 = add nsw i32 %58, -1
  store i32 %59, ptr %15, align 4, !tbaa !35
  %60 = load i32, ptr %15, align 4, !tbaa !35
  %61 = icmp slt i32 %60, 0
  br i1 %61, label %62, label %65

62:                                               ; preds = %57
  %63 = load i32, ptr %10, align 4, !tbaa !35
  %64 = sub nsw i32 %63, 1
  store i32 %64, ptr %15, align 4, !tbaa !35
  br label %65

65:                                               ; preds = %62, %57
  br label %66

66:                                               ; preds = %65, %49
  %67 = load i32, ptr %15, align 4, !tbaa !35
  %68 = load i32, ptr %16, align 4, !tbaa !35
  %69 = icmp eq i32 %67, %68
  %70 = zext i1 %69 to i32
  store i32 %70, ptr %17, align 4, !tbaa !35
  br label %71

71:                                               ; preds = %66, %40, %35
  %72 = load i32, ptr %17, align 4, !tbaa !35
  %73 = icmp ne i32 %72, 0
  br i1 %73, label %103, label %74

74:                                               ; preds = %71
  %75 = load float, ptr %14, align 4, !tbaa !97
  %76 = load ptr, ptr %7, align 8, !tbaa !95
  %77 = load i32, ptr %15, align 4, !tbaa !35
  %78 = sext i32 %77 to i64
  %79 = getelementptr inbounds float, ptr %76, i64 %78
  %80 = load float, ptr %79, align 4, !tbaa !97
  %81 = fcmp nsz ogt float %75, %80
  br i1 %81, label %82, label %103

82:                                               ; preds = %74
  br label %83

83:                                               ; preds = %101, %82
  br label %84

84:                                               ; preds = %83
  %85 = load ptr, ptr %7, align 8, !tbaa !95
  %86 = load i32, ptr %15, align 4, !tbaa !35
  %87 = sext i32 %86 to i64
  %88 = getelementptr inbounds float, ptr %85, i64 %87
  store float -1.000000e+00, ptr %88, align 4, !tbaa !97
  %89 = load i32, ptr %16, align 4, !tbaa !35
  %90 = load i32, ptr %15, align 4, !tbaa !35
  %91 = icmp eq i32 %89, %90
  br i1 %91, label %92, label %93

92:                                               ; preds = %84
  store i32 1, ptr %17, align 4, !tbaa !35
  br label %102

93:                                               ; preds = %84
  %94 = load i32, ptr %15, align 4, !tbaa !35
  %95 = add nsw i32 %94, -1
  store i32 %95, ptr %15, align 4, !tbaa !35
  %96 = load i32, ptr %15, align 4, !tbaa !35
  %97 = icmp slt i32 %96, 0
  br i1 %97, label %98, label %101

98:                                               ; preds = %93
  %99 = load i32, ptr %10, align 4, !tbaa !35
  %100 = sub nsw i32 %99, 1
  store i32 %100, ptr %15, align 4, !tbaa !35
  br label %101

101:                                              ; preds = %98, %93
  br label %83

102:                                              ; preds = %92
  br label %103

103:                                              ; preds = %102, %74, %71
  br label %104

104:                                              ; preds = %133, %103
  %105 = load i32, ptr %17, align 4, !tbaa !35
  %106 = icmp ne i32 %105, 0
  br i1 %106, label %115, label %107

107:                                              ; preds = %104
  %108 = load float, ptr %14, align 4, !tbaa !97
  %109 = load ptr, ptr %7, align 8, !tbaa !95
  %110 = load i32, ptr %16, align 4, !tbaa !35
  %111 = sext i32 %110 to i64
  %112 = getelementptr inbounds float, ptr %109, i64 %111
  %113 = load float, ptr %112, align 4, !tbaa !97
  %114 = fcmp nsz ogt float %108, %113
  br label %115

115:                                              ; preds = %107, %104
  %116 = phi i1 [ false, %104 ], [ %114, %107 ]
  br i1 %116, label %117, label %134

117:                                              ; preds = %115
  %118 = load ptr, ptr %7, align 8, !tbaa !95
  %119 = load i32, ptr %16, align 4, !tbaa !35
  %120 = sext i32 %119 to i64
  %121 = getelementptr inbounds float, ptr %118, i64 %120
  store float -1.000000e+00, ptr %121, align 4, !tbaa !97
  %122 = load i32, ptr %16, align 4, !tbaa !35
  %123 = load i32, ptr %15, align 4, !tbaa !35
  %124 = icmp eq i32 %122, %123
  br i1 %124, label %125, label %126

125:                                              ; preds = %117
  store i32 1, ptr %17, align 4, !tbaa !35
  br label %134

126:                                              ; preds = %117
  %127 = load i32, ptr %16, align 4, !tbaa !35
  %128 = add nsw i32 %127, 1
  store i32 %128, ptr %16, align 4, !tbaa !35
  %129 = load i32, ptr %16, align 4, !tbaa !35
  %130 = load i32, ptr %10, align 4, !tbaa !35
  %131 = icmp sge i32 %129, %130
  br i1 %131, label %132, label %133

132:                                              ; preds = %126
  store i32 0, ptr %16, align 4, !tbaa !35
  br label %133

133:                                              ; preds = %132, %126
  br label %104, !llvm.loop !105

134:                                              ; preds = %125, %115
  %135 = load i32, ptr %17, align 4, !tbaa !35
  %136 = icmp ne i32 %135, 0
  br i1 %136, label %146, label %137

137:                                              ; preds = %134
  %138 = load i32, ptr %16, align 4, !tbaa !35
  %139 = add nsw i32 %138, -1
  store i32 %139, ptr %16, align 4, !tbaa !35
  %140 = load i32, ptr %16, align 4, !tbaa !35
  %141 = icmp slt i32 %140, 0
  br i1 %141, label %142, label %145

142:                                              ; preds = %137
  %143 = load i32, ptr %10, align 4, !tbaa !35
  %144 = sub nsw i32 %143, 1
  store i32 %144, ptr %16, align 4, !tbaa !35
  br label %145

145:                                              ; preds = %142, %137
  br label %146

146:                                              ; preds = %145, %134
  %147 = load float, ptr %14, align 4, !tbaa !97
  %148 = load ptr, ptr %7, align 8, !tbaa !95
  %149 = load i32, ptr %16, align 4, !tbaa !35
  %150 = sext i32 %149 to i64
  %151 = getelementptr inbounds float, ptr %148, i64 %150
  store float %147, ptr %151, align 4, !tbaa !97
  %152 = load i32, ptr %16, align 4, !tbaa !35
  %153 = load i32, ptr %15, align 4, !tbaa !35
  %154 = icmp sle i32 %152, %153
  br i1 %154, label %155, label %163

155:                                              ; preds = %146
  %156 = load i32, ptr %16, align 4, !tbaa !35
  %157 = load i32, ptr %15, align 4, !tbaa !35
  %158 = load i32, ptr %16, align 4, !tbaa !35
  %159 = sub nsw i32 %157, %158
  %160 = add nsw i32 %159, 1
  %161 = sdiv i32 %160, 2
  %162 = add nsw i32 %156, %161
  br label %173

163:                                              ; preds = %146
  %164 = load i32, ptr %16, align 4, !tbaa !35
  %165 = load i32, ptr %10, align 4, !tbaa !35
  %166 = load i32, ptr %15, align 4, !tbaa !35
  %167 = add nsw i32 %165, %166
  %168 = load i32, ptr %16, align 4, !tbaa !35
  %169 = sub nsw i32 %167, %168
  %170 = add nsw i32 %169, 1
  %171 = sdiv i32 %170, 2
  %172 = add nsw i32 %164, %171
  br label %173

173:                                              ; preds = %163, %155
  %174 = phi i32 [ %162, %155 ], [ %172, %163 ]
  store i32 %174, ptr %18, align 4, !tbaa !35
  %175 = load i32, ptr %18, align 4, !tbaa !35
  %176 = load i32, ptr %10, align 4, !tbaa !35
  %177 = icmp sge i32 %175, %176
  br i1 %177, label %178, label %182

178:                                              ; preds = %173
  %179 = load i32, ptr %10, align 4, !tbaa !35
  %180 = load i32, ptr %18, align 4, !tbaa !35
  %181 = sub nsw i32 %180, %179
  store i32 %181, ptr %18, align 4, !tbaa !35
  br label %182

182:                                              ; preds = %178, %173
  %183 = load ptr, ptr %7, align 8, !tbaa !95
  %184 = load i32, ptr %18, align 4, !tbaa !35
  %185 = sext i32 %184 to i64
  %186 = getelementptr inbounds float, ptr %183, i64 %185
  %187 = load float, ptr %186, align 4, !tbaa !97
  store float %187, ptr %13, align 4, !tbaa !97
  %188 = load i32, ptr %15, align 4, !tbaa !35
  %189 = load ptr, ptr %11, align 8, !tbaa !99
  store i32 %188, ptr %189, align 4, !tbaa !35
  %190 = load i32, ptr %16, align 4, !tbaa !35
  %191 = load ptr, ptr %12, align 8, !tbaa !99
  store i32 %190, ptr %191, align 4, !tbaa !35
  %192 = load float, ptr %13, align 4, !tbaa !97
  call void @llvm.lifetime.end.p0(i64 4, ptr %18) #7
  call void @llvm.lifetime.end.p0(i64 4, ptr %17) #7
  call void @llvm.lifetime.end.p0(i64 4, ptr %16) #7
  call void @llvm.lifetime.end.p0(i64 4, ptr %15) #7
  call void @llvm.lifetime.end.p0(i64 4, ptr %14) #7
  call void @llvm.lifetime.end.p0(i64 4, ptr %13) #7
  ret float %192
}